target datalayout = "e-m:e-p270:32:32-p271:32:32-p272:64:64-i64:64-i128:128-f80:128-n8:16:32:64-S128"
target triple = "x86_64-pc-linux-gnu"

%struct.blob = type { ptr, ptr, i64, i64, i32 }

@.str.1 = private unnamed_addr constant [10 x i8] c"b != NULL\00", align 1
@.str.2 = private unnamed_addr constant [108 x i8] c"generated/home/dtcxzyw/WorkSpace/Projects/compilers/llvm-opt-benchmark/bench/clamav/clamav/libclamav/blob.c\00", align 1
@__PRETTY_FUNCTION__.blobSetFilename = private unnamed_addr constant [57 x i8] c"void blobSetFilename(blob *, const char *, const char *)\00", align 1
@.str.5 = private unnamed_addr constant [17 x i8] c"filename != NULL\00", align 1
@.str.6 = private unnamed_addr constant [21 x i8] c"blobSetFilename: %s\0A\00", align 1

; Function Attrs: nounwind uwtable
define void @sanitiseName(ptr noundef %0) #0 {
  %2 = alloca ptr, align 8
  %3 = alloca i8, align 1
  store ptr %0, ptr %2, align 8
  br label %4

4:                                                ; preds = %42, %1
  %5 = load ptr, ptr %2, align 8
  %6 = load i8, ptr %5, align 1
  store i8 %6, ptr %3, align 1
  %7 = icmp ne i8 %6, 0
  br i1 %7, label %8, label %45

8:                                                ; preds = %4
  %9 = load i8, ptr %3, align 1
  %10 = sext i8 %9 to i32
  %11 = icmp ne i32 %10, 46
  br i1 %11, label %12, label %42

12:                                               ; preds = %8
  %13 = load i8, ptr %3, align 1
  %14 = sext i8 %13 to i32
  %15 = icmp ne i32 %14, 95
  br i1 %15, label %16, label %42

16:                                               ; preds = %12
  %17 = load i8, ptr %3, align 1
  %18 = sext i8 %17 to i32
  %19 = icmp sgt i32 %18, 122
  br i1 %19, label %40, label %20

20:                                               ; preds = %16
  %21 = load i8, ptr %3, align 1
  %22 = sext i8 %21 to i32
  %23 = icmp slt i32 %22, 48
  br i1 %23, label %40, label %24

24:                                               ; preds = %20
  %25 = load i8, ptr %3, align 1
  %26 = sext i8 %25 to i32
  %27 = icmp sgt i32 %26, 57
  br i1 %27, label %28, label %32

28:                                               ; preds = %24
  %29 = load i8, ptr %3, align 1
  %30 = sext i8 %29 to i32
  %31 = icmp slt i32 %30, 65
  br i1 %31, label %40, label %32

32:                                               ; preds = %28, %24
  %33 = load i8, ptr %3, align 1
  %34 = sext i8 %33 to i32
  %35 = icmp sgt i32 %34, 90
  br i1 %35, label %36, label %42

36:                                               ; preds = %32
  %37 = load i8, ptr %3, align 1
  %38 = sext i8 %37 to i32
  %39 = icmp slt i32 %38, 97
  br i1 %39, label %40, label %42

40:                                               ; preds = %36, %28, %20, %16
  %41 = load ptr, ptr %2, align 8
  store i8 95, ptr %41, align 1
  br label %42

42:                                               ; preds = %40, %36, %32, %12, %8
  %43 = load ptr, ptr %2, align 8
  %44 = getelementptr inbounds i8, ptr %43, i32 1
  store ptr %44, ptr %2, align 8
  br label %4

45:                                               ; preds = %4
  ret void
}

; Function Attrs: nounwind uwtable
define void @blobSetFilename(ptr noundef %0, ptr noundef %1, ptr noundef %2) #0 {
  %4 = alloca ptr, align 8
  %5 = alloca ptr, align 8
  %6 = alloca ptr, align 8
  store ptr %0, ptr %4, align 8
  store ptr %1, ptr %5, align 8
  store ptr %2, ptr %6, align 8
  %7 = load ptr, ptr %4, align 8
  %8 = icmp ne ptr %7, null
  br i1 %8, label %9, label %10

9:                                                ; preds = %3
  br label %11

10:                                               ; preds = %3
  call void @__assert_fail(ptr noundef @.str.1, ptr noundef @.str.2, i32 noundef 144, ptr noundef @__PRETTY_FUNCTION__.blobSetFilename) #8
  unreachable

11:                                               ; preds = %9
  %12 = load ptr, ptr %6, align 8
  %13 = icmp ne ptr %12, null
  br i1 %13, label %14, label %15

14:                                               ; preds = %11
  br label %16

15:                                               ; preds = %11
  call void @__assert_fail(ptr noundef @.str.5, ptr noundef @.str.2, i32 noundef 148, ptr noundef @__PRETTY_FUNCTION__.blobSetFilename) #8
  unreachable

16:                                               ; preds = %14
  %17 = load ptr, ptr %6, align 8
  call void (ptr, ...) @cli_dbgmsg(ptr noundef @.str.6, ptr noundef %17)
  %18 = load ptr, ptr %4, align 8
  %19 = getelementptr inbounds %struct.blob, ptr %18, i32 0, i32 0
  %20 = load ptr, ptr %19, align 8
  %21 = icmp ne ptr %20, null
  br i1 %21, label %22, label %26

22:                                               ; preds = %16
  %23 = load ptr, ptr %4, align 8
  %24 = getelementptr inbounds %struct.blob, ptr %23, i32 0, i32 0
  %25 = load ptr, ptr %24, align 8
  call void @free(ptr noundef %25) #9
  br label %26

26:                                               ; preds = %22, %16
  %27 = load ptr, ptr %6, align 8
  %28 = call ptr @cli_safer_strdup(ptr noundef %27)
  %29 = load ptr, ptr %4, align 8
  %30 = getelementptr inbounds %struct.blob, ptr %29, i32 0, i32 0
  store ptr %28, ptr %30, align 8
  %31 = load ptr, ptr %4, align 8
  %32 = getelementptr inbounds %struct.blob, ptr %31, i32 0, i32 0
  %33 = load ptr, ptr %32, align 8
  %34 = icmp ne ptr %33, null
  br i1 %34, label %35, label %39

35:                                               ; preds = %26
  %36 = load ptr, ptr %4, align 8
  %37 = getelementptr inbounds %struct.blob, ptr %36, i32 0, i32 0
  %38 = load ptr, ptr %37, align 8
  call void @sanitiseName(ptr noundef %38)
  br label %39

39:                                               ; preds = %35, %26
  ret void
}