; Function Attrs: nounwind uwtable
define void @blobSetFilename(ptr noundef %0, ptr nocapture noundef readnone %1, ptr noundef %2) local_unnamed_addr #2 {
  %.not = icmp eq ptr %0, null
  br i1 %.not, label %4, label %5

4:                                                ; preds = %3
  tail call void @__assert_fail(ptr noundef nonnull @.str.1, ptr noundef nonnull @.str.2, i32 noundef 144, ptr noundef nonnull @__PRETTY_FUNCTION__.blobSetFilename) #17
  unreachable

5:                                                ; preds = %3
  %.not12 = icmp eq ptr %2, null
  br i1 %.not12, label %6, label %7

6:                                                ; preds = %5
  tail call void @__assert_fail(ptr noundef nonnull @.str.5, ptr noundef nonnull @.str.2, i32 noundef 148, ptr noundef nonnull @__PRETTY_FUNCTION__.blobSetFilename) #17
  unreachable

7:                                                ; preds = %5
  tail call void (ptr, ...) @cli_dbgmsg(ptr noundef nonnull @.str.6, ptr noundef nonnull %2) #16
  %8 = load ptr, ptr %0, align 8
  %.not13 = icmp eq ptr %8, null
  br i1 %.not13, label %10, label %9

9:                                                ; preds = %7
  tail call void @free(ptr noundef nonnull %8) #16
  br label %10

10:                                               ; preds = %9, %7
  %11 = tail call ptr @cli_safer_strdup(ptr noundef nonnull %2) #16
  store ptr %11, ptr %0, align 8
  %.not14 = icmp eq ptr %11, null
  br i1 %.not14, label %sanitiseName.exit, label %.preheader

.preheader:                                       ; preds = %10, %16
  %.0.i = phi ptr [ %17, %16 ], [ %11, %10 ]
  %12 = load i8, ptr %.0.i, align 1
  switch i8 %12, label %13 [
    i8 0, label %sanitiseName.exit
    i8 95, label %16
    i8 46, label %16
  ]

13:                                               ; preds = %.preheader
  %14 = add i8 %12, -123
  %or.cond5.i = icmp ult i8 %14, -75
  br i1 %or.cond5.i, label %15, label %switch.early.test.i

switch.early.test.i:                              ; preds = %13
  switch i8 %12, label %16 [
    i8 96, label %15
    i8 95, label %15
    i8 94, label %15
    i8 93, label %15
    i8 92, label %15
    i8 91, label %15
    i8 64, label %15
    i8 63, label %15
    i8 62, label %15
    i8 61, label %15
    i8 60, label %15
    i8 59, label %15
    i8 58, label %15
  ]

15:                                               ; preds = %switch.early.test.i, %switch.early.test.i, %switch.early.test.i, %switch.early.test.i, %switch.early.test.i, %switch.early.test.i, %switch.early.test.i, %switch.early.test.i, %switch.early.test.i, %switch.early.test.i, %switch.early.test.i, %switch.early.test.i, %switch.early.test.i, %13
  store i8 95, ptr %.0.i, align 1
  br label %16

16:                                               ; preds = %15, %switch.early.test.i, %.preheader, %.preheader
  %17 = getelementptr inbounds i8, ptr %.0.i, i64 1
  br label %.preheader

sanitiseName.exit:                                ; preds = %.preheader, %10
  ret void
}